target datalayout = "e-m:e-p270:32:32-p271:32:32-p272:64:64-i64:64-i128:128-f80:128-n8:16:32:64-S128"
target triple = "x86_64-pc-linux-gnu"

; Function Attrs: mustprogress uwtable
define internal noundef i32 @_ZL9b_countlzP9lua_State(ptr noundef %0) #0 {
  %2 = alloca ptr, align 8
  %3 = alloca i32, align 4
  %4 = alloca i32, align 4
  %5 = alloca i32, align 4
  %6 = alloca i32, align 4
  store ptr %0, ptr %2, align 8, !tbaa !4
  call void @llvm.lifetime.start.p0(i64 4, ptr %3) #4
  %7 = load ptr, ptr %2, align 8, !tbaa !4
  %8 = call noundef i32 @_Z18luaL_checkunsignedP9lua_Statei(ptr noundef %7, i32 noundef 1)
  store i32 %8, ptr %3, align 4, !tbaa !9
  call void @llvm.lifetime.start.p0(i64 4, ptr %4) #4
  store i32 32, ptr %4, align 4, !tbaa !9
  call void @llvm.lifetime.start.p0(i64 4, ptr %5) #4
  store i32 0, ptr %5, align 4, !tbaa !9
  br label %9

9:                                                ; preds = %23, %1
  %10 = load i32, ptr %5, align 4, !tbaa !9
  %11 = icmp slt i32 %10, 32
  br i1 %11, label %13, label %12

12:                                               ; preds = %9
  store i32 2, ptr %6, align 4
  br label %26

13:                                               ; preds = %9
  %14 = load i32, ptr %3, align 4, !tbaa !9
  %15 = load i32, ptr %5, align 4, !tbaa !9
  %16 = sub nsw i32 31, %15
  %17 = shl i32 1, %16
  %18 = and i32 %14, %17
  %19 = icmp ne i32 %18, 0
  br i1 %19, label %20, label %22

20:                                               ; preds = %13
  %21 = load i32, ptr %5, align 4, !tbaa !9
  store i32 %21, ptr %4, align 4, !tbaa !9
  store i32 2, ptr %6, align 4
  br label %26

22:                                               ; preds = %13
  br label %23

23:                                               ; preds = %22
  %24 = load i32, ptr %5, align 4, !tbaa !9
  %25 = add nsw i32 %24, 1
  store i32 %25, ptr %5, align 4, !tbaa !9
  br label %9, !llvm.loop !14

26:                                               ; preds = %20, %12
  call void @llvm.lifetime.end.p0(i64 4, ptr %5) #4
  br label %27

27:                                               ; preds = %26
  %28 = load ptr, ptr %2, align 8, !tbaa !4
  %29 = load i32, ptr %4, align 4, !tbaa !9
  call void @_Z16lua_pushunsignedP9lua_Statej(ptr noundef %28, i32 noundef %29)
  store i32 1, ptr %6, align 4
  call void @llvm.lifetime.end.p0(i64 4, ptr %4) #4
  call void @llvm.lifetime.end.p0(i64 4, ptr %3) #4
  ret i32 1
}